; Function Attrs: nounwind uwtable
define internal fastcc void @Ssc_ManCollectSuper_rec(ptr noundef readonly captures(none) %0, ptr noundef %1, ptr noundef captures(none) %2) unnamed_addr #0 {
  %4 = ptrtoint ptr %1 to i64
  %5 = and i64 %4, 1
  %.not18 = icmp eq i64 %5, 0
  br i1 %.not18, label %.lr.ph.preheader, label %._crit_edge

.lr.ph.preheader:                                 ; preds = %3
  %.val1426 = load i64, ptr %1, align 4
  %6 = and i64 %.val1426, 2684354559
  %narrow.i.not27 = icmp eq i64 %6, 2684354559
  br i1 %narrow.i.not27, label %._crit_edge, label %.lr.ph29

.lr.ph:                                           ; preds = %tailrecurse
  %7 = inttoptr i64 %75 to ptr
  %.val14 = load i64, ptr %7, align 4
  %8 = and i64 %.val14, 2684354559
  %narrow.i.not = icmp eq i64 %8, 2684354559
  br i1 %narrow.i.not, label %._crit_edge, label %.lr.ph29

.lr.ph29:                                         ; preds = %.lr.ph.preheader, %.lr.ph
  %.tr151928 = phi ptr [ %7, %.lr.ph ], [ %1, %.lr.ph.preheader ]
  %9 = phi i64 [ %75, %.lr.ph ], [ %4, %.lr.ph.preheader ]
  %10 = tail call i32 @Gia_ObjIsMuxType(ptr noundef nonnull %.tr151928) #8
  %.not13 = icmp eq i32 %10, 0
  br i1 %.not13, label %tailrecurse, label %._crit_edge

._crit_edge:                                      ; preds = %.lr.ph29, %.lr.ph, %tailrecurse, %.lr.ph.preheader, %3
  %.lcssa17 = phi i64 [ %4, %3 ], [ %4, %.lr.ph.preheader ], [ %75, %tailrecurse ], [ %75, %.lr.ph ], [ %9, %.lr.ph29 ]
  %.lcssa = phi i32 [ 1, %3 ], [ 0, %.lr.ph.preheader ], [ 1, %tailrecurse ], [ 0, %.lr.ph ], [ 0, %.lr.ph29 ]
  %11 = getelementptr i8, ptr %0, i64 32
  %.val = load ptr, ptr %11, align 8, !tbaa !49
  %12 = and i64 %.lcssa17, -2
  %13 = ptrtoint ptr %.val to i64
  %14 = sub i64 %12, %13
  %15 = sdiv exact i64 %14, 12
  %16 = trunc i64 %15 to i32
  %17 = shl nsw i32 %16, 1
  %18 = or disjoint i32 %17, %.lcssa
  %19 = getelementptr inbounds nuw i8, ptr %2, i64 4
  %20 = load i32, ptr %19, align 4, !tbaa !40
  %21 = icmp sgt i32 %20, 0
  br i1 %21, label %.lr.ph.i, label %._crit_edge.i

.lr.ph.i:                                         ; preds = %._crit_edge
  %22 = getelementptr inbounds nuw i8, ptr %2, i64 8
  %23 = load ptr, ptr %22, align 8, !tbaa !43
  %wide.trip.count.i = zext nneg i32 %20 to i64
  br label %25

24:                                               ; preds = %25
  %indvars.iv.next.i = add nuw nsw i64 %indvars.iv.i, 1
  %exitcond.not.i = icmp eq i64 %indvars.iv.next.i, %wide.trip.count.i
  br i1 %exitcond.not.i, label %._crit_edge.i, label %25, !llvm.loop !83

25:                                               ; preds = %24, %.lr.ph.i
  %indvars.iv.i = phi i64 [ 0, %.lr.ph.i ], [ %indvars.iv.next.i, %24 ]
  %26 = getelementptr inbounds nuw i32, ptr %23, i64 %indvars.iv.i
  %27 = load i32, ptr %26, align 4, !tbaa !47
  %28 = icmp eq i32 %27, %18
  br i1 %28, label %Vec_IntPushUnique.exit, label %24

._crit_edge.i:                                    ; preds = %24, %._crit_edge
  %29 = load i32, ptr %2, align 8, !tbaa !42
  %30 = icmp eq i32 %20, %29
  br i1 %30, label %31, label %.Vec_IntGrow.exit10_crit_edge.i.i

.Vec_IntGrow.exit10_crit_edge.i.i:                ; preds = %._crit_edge.i
  %.phi.trans.insert.i.i = getelementptr inbounds nuw i8, ptr %2, i64 8
  %.pre.i.i = load ptr, ptr %.phi.trans.insert.i.i, align 8, !tbaa !43
  br label %Vec_IntPush.exit.i

31:                                               ; preds = %._crit_edge.i
  %32 = icmp slt i32 %20, 16
  br i1 %32, label %33, label %41

33:                                               ; preds = %31
  %34 = getelementptr inbounds nuw i8, ptr %2, i64 8
  %35 = load ptr, ptr %34, align 8, !tbaa !43
  %.not9.i.i.i = icmp eq ptr %35, null
  br i1 %.not9.i.i.i, label %38, label %36

36:                                               ; preds = %33
  %37 = tail call dereferenceable_or_null(64) ptr @realloc(ptr noundef nonnull %35, i64 noundef 64) #10
  br label %Vec_IntGrow.exit.i.i

38:                                               ; preds = %33
  %39 = tail call noalias dereferenceable_or_null(64) ptr @malloc(i64 noundef 64) #9
  br label %Vec_IntGrow.exit.i.i

Vec_IntGrow.exit.i.i:                             ; preds = %38, %36
  %40 = phi ptr [ %37, %36 ], [ %39, %38 ]
  store ptr %40, ptr %34, align 8, !tbaa !43
  store i32 16, ptr %2, align 8, !tbaa !42
  br label %Vec_IntPush.exit.i

41:                                               ; preds = %31
  %42 = shl nuw nsw i32 %20, 1
  %43 = getelementptr inbounds nuw i8, ptr %2, i64 8
  %44 = load ptr, ptr %43, align 8, !tbaa !43
  %.not9.i9.i.i = icmp eq ptr %44, null
  %45 = zext nneg i32 %42 to i64
  %46 = shl nuw nsw i64 %45, 2
  br i1 %.not9.i9.i.i, label %49, label %47

47:                                               ; preds = %41
  %48 = tail call ptr @realloc(ptr noundef nonnull %44, i64 noundef %46) #10
  br label %51

49:                                               ; preds = %41
  %50 = tail call noalias ptr @malloc(i64 noundef %46) #9
  br label %51

51:                                               ; preds = %49, %47
  %52 = phi ptr [ %48, %47 ], [ %50, %49 ]
  store ptr %52, ptr %43, align 8, !tbaa !43
  store i32 %42, ptr %2, align 8, !tbaa !42
  br label %Vec_IntPush.exit.i

Vec_IntPush.exit.i:                               ; preds = %51, %Vec_IntGrow.exit.i.i, %.Vec_IntGrow.exit10_crit_edge.i.i
  %53 = phi ptr [ %.pre.i.i, %.Vec_IntGrow.exit10_crit_edge.i.i ], [ %52, %51 ], [ %40, %Vec_IntGrow.exit.i.i ]
  %54 = load i32, ptr %19, align 4, !tbaa !40
  %55 = add nsw i32 %54, 1
  store i32 %55, ptr %19, align 4, !tbaa !40
  %56 = sext i32 %54 to i64
  %57 = getelementptr inbounds i32, ptr %53, i64 %56
  store i32 %18, ptr %57, align 4, !tbaa !47
  br label %Vec_IntPushUnique.exit

tailrecurse:                                      ; preds = %.lr.ph29
  %58 = load i64, ptr %.tr151928, align 4
  %59 = and i64 %58, 536870911
  %60 = sub nsw i64 0, %59
  %61 = getelementptr inbounds %struct.Gia_Obj_t_, ptr %.tr151928, i64 %60
  %62 = lshr i64 %58, 29
  %63 = and i64 %62, 1
  %64 = ptrtoint ptr %61 to i64
  %65 = xor i64 %63, %64
  %66 = inttoptr i64 %65 to ptr
  tail call fastcc void @Ssc_ManCollectSuper_rec(ptr noundef %0, ptr noundef %66, ptr noundef %2)
  %67 = load i64, ptr %.tr151928, align 4
  %68 = lshr i64 %67, 32
  %69 = and i64 %68, 536870911
  %70 = sub nsw i64 0, %69
  %71 = getelementptr inbounds %struct.Gia_Obj_t_, ptr %.tr151928, i64 %70
  %72 = lshr i64 %67, 61
  %73 = and i64 %72, 1
  %74 = ptrtoint ptr %71 to i64
  %75 = xor i64 %73, %74
  %76 = and i64 %75, 1
  %.not = icmp eq i64 %76, 0
  br i1 %.not, label %.lr.ph, label %._crit_edge

Vec_IntPushUnique.exit:                           ; preds = %25, %Vec_IntPush.exit.i
  ret void
}